; Function Attrs: mustprogress nofree norecurse nosync nounwind willreturn memory(read, argmem: readwrite, inaccessiblemem: none) uwtable
define noundef double @_ZN10open_spiel19RandomFixedSequence13RandomUniformEv(ptr nocapture noundef nonnull align 8 dereferenceable(36) %0) unnamed_addr #4 align 2 {
  %2 = getelementptr inbounds nuw i8, ptr %0, i64 8
  %3 = getelementptr inbounds nuw i8, ptr %0, i64 32
  %4 = load i32, ptr %3, align 8
  %5 = sext i32 %4 to i64
  %6 = load ptr, ptr %2, align 8
  %7 = getelementptr inbounds double, ptr %6, i64 %5
  %8 = load double, ptr %7, align 8
  %9 = add nsw i32 %4, 1
  store i32 %9, ptr %3, align 8
  %10 = sext i32 %9 to i64
  %11 = getelementptr inbounds i8, ptr %0, i64 16
  %12 = load ptr, ptr %11, align 8
  %13 = ptrtoint ptr %12 to i64
  %14 = ptrtoint ptr %6 to i64
  %15 = sub i64 %13, %14
  %16 = ashr exact i64 %15, 3
  %17 = icmp eq i64 %16, %10
  br i1 %17, label %18, label %19

18:                                               ; preds = %1
  store i32 0, ptr %3, align 8
  br label %19

19:                                               ; preds = %18, %1
  ret double %8
}